target datalayout = "e-m:e-p270:32:32-p271:32:32-p272:64:64-i64:64-i128:128-f80:128-n8:16:32:64-S128"
target triple = "x86_64-pc-linux-gnu"

%struct.yyguts_t = type { ptr, ptr, ptr, i64, i64, ptr, i8, i32, i32, ptr, i32, i32, i32, i32, i32, ptr, i32, ptr, i32, i32, ptr, i32, i32, ptr, ptr }
%struct.yy_buffer_state = type { ptr, ptr, ptr, i32, i32, i32, i32, i32, i32, i32, i32, i32 }

@.str.38 = private unnamed_addr constant [49 x i8] c"out of dynamic memory in yyensure_buffer_stack()\00", align 1

; Function Attrs: mustprogress nounwind uwtable
define noundef ptr @_Z9yyreallocPvmS_(ptr noundef %0, i64 noundef %1, ptr noundef %2) #2 {
  %4 = alloca ptr, align 8
  %5 = alloca i64, align 8
  %6 = alloca ptr, align 8
  %7 = alloca ptr, align 8
  store ptr %0, ptr %4, align 8
  store i64 %1, ptr %5, align 8
  store ptr %2, ptr %6, align 8
  %8 = load ptr, ptr %6, align 8
  store ptr %8, ptr %7, align 8
  %9 = load ptr, ptr %4, align 8
  %10 = load i64, ptr %5, align 8
  %11 = call ptr @realloc(ptr noundef %9, i64 noundef %10) #28
  ret ptr %11
}

; Function Attrs: mustprogress nounwind uwtable
define noundef ptr @_Z7yyallocmPv(i64 noundef %0, ptr noundef %1) #2 {
  %3 = alloca i64, align 8
  %4 = alloca ptr, align 8
  %5 = alloca ptr, align 8
  store i64 %0, ptr %3, align 8
  store ptr %1, ptr %4, align 8
  %6 = load ptr, ptr %4, align 8
  store ptr %6, ptr %5, align 8
  %7 = load i64, ptr %3, align 8
  %8 = call noalias ptr @malloc(i64 noundef %7) #26
  ret ptr %8
}

; Function Attrs: mustprogress nounwind uwtable
define internal void @_ZL20yy_load_buffer_statePv(ptr noundef %0) #2 {
  %2 = alloca ptr, align 8
  %3 = alloca ptr, align 8
  store ptr %0, ptr %2, align 8
  %4 = load ptr, ptr %2, align 8
  store ptr %4, ptr %3, align 8
  %5 = load ptr, ptr %3, align 8
  %6 = getelementptr inbounds %struct.yyguts_t, ptr %5, i32 0, i32 5
  %7 = load ptr, ptr %6, align 8
  %8 = load ptr, ptr %3, align 8
  %9 = getelementptr inbounds %struct.yyguts_t, ptr %8, i32 0, i32 3
  %10 = load i64, ptr %9, align 8
  %11 = getelementptr inbounds ptr, ptr %7, i64 %10
  %12 = load ptr, ptr %11, align 8
  %13 = getelementptr inbounds %struct.yy_buffer_state, ptr %12, i32 0, i32 4
  %14 = load i32, ptr %13, align 4
  %15 = load ptr, ptr %3, align 8
  %16 = getelementptr inbounds %struct.yyguts_t, ptr %15, i32 0, i32 7
  store i32 %14, ptr %16, align 4
  %17 = load ptr, ptr %3, align 8
  %18 = getelementptr inbounds %struct.yyguts_t, ptr %17, i32 0, i32 5
  %19 = load ptr, ptr %18, align 8
  %20 = load ptr, ptr %3, align 8
  %21 = getelementptr inbounds %struct.yyguts_t, ptr %20, i32 0, i32 3
  %22 = load i64, ptr %21, align 8
  %23 = getelementptr inbounds ptr, ptr %19, i64 %22
  %24 = load ptr, ptr %23, align 8
  %25 = getelementptr inbounds %struct.yy_buffer_state, ptr %24, i32 0, i32 2
  %26 = load ptr, ptr %25, align 8
  %27 = load ptr, ptr %3, align 8
  %28 = getelementptr inbounds %struct.yyguts_t, ptr %27, i32 0, i32 9
  store ptr %26, ptr %28, align 8
  %29 = load ptr, ptr %3, align 8
  %30 = getelementptr inbounds %struct.yyguts_t, ptr %29, i32 0, i32 20
  store ptr %26, ptr %30, align 8
  %31 = load ptr, ptr %3, align 8
  %32 = getelementptr inbounds %struct.yyguts_t, ptr %31, i32 0, i32 5
  %33 = load ptr, ptr %32, align 8
  %34 = load ptr, ptr %3, align 8
  %35 = getelementptr inbounds %struct.yyguts_t, ptr %34, i32 0, i32 3
  %36 = load i64, ptr %35, align 8
  %37 = getelementptr inbounds ptr, ptr %33, i64 %36
  %38 = load ptr, ptr %37, align 8
  %39 = getelementptr inbounds %struct.yy_buffer_state, ptr %38, i32 0, i32 0
  %40 = load ptr, ptr %39, align 8
  %41 = load ptr, ptr %3, align 8
  %42 = getelementptr inbounds %struct.yyguts_t, ptr %41, i32 0, i32 1
  store ptr %40, ptr %42, align 8
  %43 = load ptr, ptr %3, align 8
  %44 = getelementptr inbounds %struct.yyguts_t, ptr %43, i32 0, i32 9
  %45 = load ptr, ptr %44, align 8
  %46 = load i8, ptr %45, align 1
  %47 = load ptr, ptr %3, align 8
  %48 = getelementptr inbounds %struct.yyguts_t, ptr %47, i32 0, i32 6
  store i8 %46, ptr %48, align 8
  ret void
}

; Function Attrs: mustprogress uwtable
define internal void @_ZL21yyensure_buffer_stackPv(ptr noundef %0) #5 {
  %2 = alloca ptr, align 8
  %3 = alloca i64, align 8
  %4 = alloca ptr, align 8
  %5 = alloca i64, align 8
  store ptr %0, ptr %2, align 8
  %6 = load ptr, ptr %2, align 8
  store ptr %6, ptr %4, align 8
  %7 = load ptr, ptr %4, align 8
  %8 = getelementptr inbounds %struct.yyguts_t, ptr %7, i32 0, i32 5
  %9 = load ptr, ptr %8, align 8
  %10 = icmp ne ptr %9, null
  br i1 %10, label %35, label %11

11:                                               ; preds = %1
  store i64 1, ptr %3, align 8
  %12 = load i64, ptr %3, align 8
  %13 = mul i64 %12, 8
  %14 = load ptr, ptr %2, align 8
  %15 = call noundef ptr @_Z7yyallocmPv(i64 noundef %13, ptr noundef %14)
  %16 = load ptr, ptr %4, align 8
  %17 = getelementptr inbounds %struct.yyguts_t, ptr %16, i32 0, i32 5
  store ptr %15, ptr %17, align 8
  %18 = load ptr, ptr %4, align 8
  %19 = getelementptr inbounds %struct.yyguts_t, ptr %18, i32 0, i32 5
  %20 = load ptr, ptr %19, align 8
  %21 = icmp ne ptr %20, null
  br i1 %21, label %24, label %22

22:                                               ; preds = %11
  %23 = load ptr, ptr %2, align 8
  call void @_ZL14yy_fatal_errorPKcPv(ptr noundef @.str.38, ptr noundef %23) #24
  unreachable

24:                                               ; preds = %11
  %25 = load ptr, ptr %4, align 8
  %26 = getelementptr inbounds %struct.yyguts_t, ptr %25, i32 0, i32 5
  %27 = load ptr, ptr %26, align 8
  %28 = load i64, ptr %3, align 8
  %29 = mul i64 %28, 8
  call void @llvm.memset.p0.i64(ptr align 8 %27, i8 0, i64 %29, i1 false)
  %30 = load i64, ptr %3, align 8
  %31 = load ptr, ptr %4, align 8
  %32 = getelementptr inbounds %struct.yyguts_t, ptr %31, i32 0, i32 4
  store i64 %30, ptr %32, align 8
  %33 = load ptr, ptr %4, align 8
  %34 = getelementptr inbounds %struct.yyguts_t, ptr %33, i32 0, i32 3
  store i64 0, ptr %34, align 8
  br label %78

35:                                               ; preds = %1
  %36 = load ptr, ptr %4, align 8
  %37 = getelementptr inbounds %struct.yyguts_t, ptr %36, i32 0, i32 3
  %38 = load i64, ptr %37, align 8
  %39 = load ptr, ptr %4, align 8
  %40 = getelementptr inbounds %struct.yyguts_t, ptr %39, i32 0, i32 4
  %41 = load i64, ptr %40, align 8
  %42 = sub i64 %41, 1
  %43 = icmp uge i64 %38, %42
  br i1 %43, label %44, label %78

44:                                               ; preds = %35
  store i64 8, ptr %5, align 8
  %45 = load ptr, ptr %4, align 8
  %46 = getelementptr inbounds %struct.yyguts_t, ptr %45, i32 0, i32 4
  %47 = load i64, ptr %46, align 8
  %48 = load i64, ptr %5, align 8
  %49 = add i64 %47, %48
  store i64 %49, ptr %3, align 8
  %50 = load ptr, ptr %4, align 8
  %51 = getelementptr inbounds %struct.yyguts_t, ptr %50, i32 0, i32 5
  %52 = load ptr, ptr %51, align 8
  %53 = load i64, ptr %3, align 8
  %54 = mul i64 %53, 8
  %55 = load ptr, ptr %2, align 8
  %56 = call noundef ptr @_Z9yyreallocPvmS_(ptr noundef %52, i64 noundef %54, ptr noundef %55)
  %57 = load ptr, ptr %4, align 8
  %58 = getelementptr inbounds %struct.yyguts_t, ptr %57, i32 0, i32 5
  store ptr %56, ptr %58, align 8
  %59 = load ptr, ptr %4, align 8
  %60 = getelementptr inbounds %struct.yyguts_t, ptr %59, i32 0, i32 5
  %61 = load ptr, ptr %60, align 8
  %62 = icmp ne ptr %61, null
  br i1 %62, label %65, label %63

63:                                               ; preds = %44
  %64 = load ptr, ptr %2, align 8
  call void @_ZL14yy_fatal_errorPKcPv(ptr noundef @.str.38, ptr noundef %64) #24
  unreachable

65:                                               ; preds = %44
  %66 = load ptr, ptr %4, align 8
  %67 = getelementptr inbounds %struct.yyguts_t, ptr %66, i32 0, i32 5
  %68 = load ptr, ptr %67, align 8
  %69 = load ptr, ptr %4, align 8
  %70 = getelementptr inbounds %struct.yyguts_t, ptr %69, i32 0, i32 4
  %71 = load i64, ptr %70, align 8
  %72 = getelementptr inbounds ptr, ptr %68, i64 %71
  %73 = load i64, ptr %5, align 8
  %74 = mul i64 %73, 8
  call void @llvm.memset.p0.i64(ptr align 8 %72, i8 0, i64 %74, i1 false)
  %75 = load i64, ptr %3, align 8
  %76 = load ptr, ptr %4, align 8
  %77 = getelementptr inbounds %struct.yyguts_t, ptr %76, i32 0, i32 4
  store i64 %75, ptr %77, align 8
  br label %78

78:                                               ; preds = %65, %35, %24
  ret void
}

; Function Attrs: mustprogress uwtable
define void @_Z19yy_switch_to_bufferP15yy_buffer_statePv(ptr noundef %0, ptr noundef %1) #5 {
  %3 = alloca ptr, align 8
  %4 = alloca ptr, align 8
  %5 = alloca ptr, align 8
  store ptr %0, ptr %3, align 8
  store ptr %1, ptr %4, align 8
  %6 = load ptr, ptr %4, align 8
  store ptr %6, ptr %5, align 8
  %7 = load ptr, ptr %4, align 8
  call void @_ZL21yyensure_buffer_stackPv(ptr noundef %7)
  %8 = load ptr, ptr %5, align 8
  %9 = getelementptr inbounds %struct.yyguts_t, ptr %8, i32 0, i32 5
  %10 = load ptr, ptr %9, align 8
  %11 = icmp ne ptr %10, null
  br i1 %11, label %12, label %21

12:                                               ; preds = %2
  %13 = load ptr, ptr %5, align 8
  %14 = getelementptr inbounds %struct.yyguts_t, ptr %13, i32 0, i32 5
  %15 = load ptr, ptr %14, align 8
  %16 = load ptr, ptr %5, align 8
  %17 = getelementptr inbounds %struct.yyguts_t, ptr %16, i32 0, i32 3
  %18 = load i64, ptr %17, align 8
  %19 = getelementptr inbounds ptr, ptr %15, i64 %18
  %20 = load ptr, ptr %19, align 8
  br label %22

21:                                               ; preds = %2
  br label %22

22:                                               ; preds = %21, %12
  %23 = phi ptr [ %20, %12 ], [ null, %21 ]
  %24 = load ptr, ptr %3, align 8
  %25 = icmp eq ptr %23, %24
  br i1 %25, label %26, label %27

26:                                               ; preds = %22
  br label %88

27:                                               ; preds = %22
  %28 = load ptr, ptr %5, align 8
  %29 = getelementptr inbounds %struct.yyguts_t, ptr %28, i32 0, i32 5
  %30 = load ptr, ptr %29, align 8
  %31 = icmp ne ptr %30, null
  br i1 %31, label %32, label %41

32:                                               ; preds = %27
  %33 = load ptr, ptr %5, align 8
  %34 = getelementptr inbounds %struct.yyguts_t, ptr %33, i32 0, i32 5
  %35 = load ptr, ptr %34, align 8
  %36 = load ptr, ptr %5, align 8
  %37 = getelementptr inbounds %struct.yyguts_t, ptr %36, i32 0, i32 3
  %38 = load i64, ptr %37, align 8
  %39 = getelementptr inbounds ptr, ptr %35, i64 %38
  %40 = load ptr, ptr %39, align 8
  br label %42

41:                                               ; preds = %27
  br label %42

42:                                               ; preds = %41, %32
  %43 = phi ptr [ %40, %32 ], [ null, %41 ]
  %44 = icmp ne ptr %43, null
  br i1 %44, label %45, label %76

45:                                               ; preds = %42
  %46 = load ptr, ptr %5, align 8
  %47 = getelementptr inbounds %struct.yyguts_t, ptr %46, i32 0, i32 6
  %48 = load i8, ptr %47, align 8
  %49 = load ptr, ptr %5, align 8
  %50 = getelementptr inbounds %struct.yyguts_t, ptr %49, i32 0, i32 9
  %51 = load ptr, ptr %50, align 8
  store i8 %48, ptr %51, align 1
  %52 = load ptr, ptr %5, align 8
  %53 = getelementptr inbounds %struct.yyguts_t, ptr %52, i32 0, i32 9
  %54 = load ptr, ptr %53, align 8
  %55 = load ptr, ptr %5, align 8
  %56 = getelementptr inbounds %struct.yyguts_t, ptr %55, i32 0, i32 5
  %57 = load ptr, ptr %56, align 8
  %58 = load ptr, ptr %5, align 8
  %59 = getelementptr inbounds %struct.yyguts_t, ptr %58, i32 0, i32 3
  %60 = load i64, ptr %59, align 8
  %61 = getelementptr inbounds ptr, ptr %57, i64 %60
  %62 = load ptr, ptr %61, align 8
  %63 = getelementptr inbounds %struct.yy_buffer_state, ptr %62, i32 0, i32 2
  store ptr %54, ptr %63, align 8
  %64 = load ptr, ptr %5, align 8
  %65 = getelementptr inbounds %struct.yyguts_t, ptr %64, i32 0, i32 7
  %66 = load i32, ptr %65, align 4
  %67 = load ptr, ptr %5, align 8
  %68 = getelementptr inbounds %struct.yyguts_t, ptr %67, i32 0, i32 5
  %69 = load ptr, ptr %68, align 8
  %70 = load ptr, ptr %5, align 8
  %71 = getelementptr inbounds %struct.yyguts_t, ptr %70, i32 0, i32 3
  %72 = load i64, ptr %71, align 8
  %73 = getelementptr inbounds ptr, ptr %69, i64 %72
  %74 = load ptr, ptr %73, align 8
  %75 = getelementptr inbounds %struct.yy_buffer_state, ptr %74, i32 0, i32 4
  store i32 %66, ptr %75, align 4
  br label %76

76:                                               ; preds = %45, %42
  %77 = load ptr, ptr %3, align 8
  %78 = load ptr, ptr %5, align 8
  %79 = getelementptr inbounds %struct.yyguts_t, ptr %78, i32 0, i32 5
  %80 = load ptr, ptr %79, align 8
  %81 = load ptr, ptr %5, align 8
  %82 = getelementptr inbounds %struct.yyguts_t, ptr %81, i32 0, i32 3
  %83 = load i64, ptr %82, align 8
  %84 = getelementptr inbounds ptr, ptr %80, i64 %83
  store ptr %77, ptr %84, align 8
  %85 = load ptr, ptr %4, align 8
  call void @_ZL20yy_load_buffer_statePv(ptr noundef %85)
  %86 = load ptr, ptr %5, align 8
  %87 = getelementptr inbounds %struct.yyguts_t, ptr %86, i32 0, i32 12
  store i32 1, ptr %87, align 8
  br label %88

88:                                               ; preds = %76, %26
  ret void
}